ccopy_reg
_reconstructor
p0
(cgoogle.oauth2.credentials
Credentials
p1
c__builtin__
object
p2
Ntp3
Rp4
(dp5
S'_token_uri'
p6
Vhttps://oauth2.googleapis.com/token
p7
sS'_client_secret'
p8
Vp4b8b35dXnANrGjdg3MKmhyF
p9
sS'_id_token'
p10
NsS'token'
p11
Vya29.GludBmMJGREqX1OjDd8LFJ6s_Eh_1wb5TVKc6eMeadd5RGuzn2hT6Myyd-rs7-_fPRp0naScUAQgd8OkFduEEdvYjVFxe0r58u8tZzGpEOxoo7Q5WHhuusNDSUgf
p12
sS'_refresh_token'
p13
V1/U-eme8APqJmxdkepstWztdQogL4-Zx714ybnJ8BjvAxNH-4IweFI6krC_JP3VwUL
p14
sS'_scopes'
p15
(lp16
S'https://www.googleapis.com/auth/drive.metadata.readonly'
p17
asS'_client_id'
p18
V146807004573-fe7r2nvmb1rvllbs4gdv9q6no3bu69nl.apps.googleusercontent.com
p19
sS'expiry'
p20
cdatetime
datetime
p21
(S'\x07\xe3\x01\x19\x16\x0f0\x038\x8c'
p22
tp23
Rp24
sb.